target datalayout = "e-m:e-p270:32:32-p271:32:32-p272:64:64-i64:64-i128:128-f80:128-n8:16:32:64-S128"
target triple = "x86_64-pc-linux-gnu"

%struct.Proto = type { ptr, i8, i8, i8, i8, i8, i32, i32, i32, i32, i32, i32, i32, i32, i32, ptr, ptr, ptr, ptr, ptr, ptr, ptr, ptr, ptr }
%struct.lua_State = type { ptr, i8, i8, i8, i8, i16, %union.StkIdRel, ptr, ptr, %union.StkIdRel, %union.StkIdRel, ptr, %union.StkIdRel, ptr, ptr, ptr, %struct.CallInfo, ptr, i64, i32, i32, i32, i32, i32, %struct.anon.2 }
%union.StkIdRel = type { ptr }
%struct.CallInfo = type { %union.StkIdRel, %union.StkIdRel, ptr, ptr, %union.anon, %union.anon.1, i32 }
%union.anon = type { %struct.anon.0 }
%struct.anon.0 = type { ptr, i64, i64 }
%union.anon.1 = type { i32 }
%struct.anon.2 = type { i32, i32 }
%struct.anon = type { ptr, i32, i32 }
%union.StackValue = type { %struct.TValue }
%struct.TValue = type { %union.Value, i8 }
%union.Value = type { ptr }
%struct.LClosure = type { ptr, i8, i8, i8, ptr, ptr, [1 x ptr] }
%struct.TString = type { ptr, i8, i8, i8, i8, i32, %union.anon.4, ptr, ptr, ptr }
%union.anon.4 = type { i64 }
%struct.UpVal = type { ptr, i8, i8, %union.anon.5, %union.anon.6 }
%union.anon.5 = type { ptr }
%union.anon.6 = type { %struct.anon.7 }
%struct.anon.7 = type { ptr, ptr }
%struct.Upvaldesc = type { ptr, i8, i8, i8 }

@.str.10 = private unnamed_addr constant [1 x i8] zeroinitializer, align 1
@.str.17 = private unnamed_addr constant [8 x i8] c"upvalue\00", align 1
@.str.18 = private unnamed_addr constant [2 x i8] c"?\00", align 1
@.str.30 = private unnamed_addr constant [11 x i8] c" (%s '%s')\00", align 1

; Function Attrs: nounwind uwtable
define internal ptr @upvalname(ptr noundef %0, i32 noundef %1) #0 {
  %3 = alloca ptr, align 8
  %4 = alloca ptr, align 8
  %5 = alloca i32, align 4
  %6 = alloca ptr, align 8
  %7 = alloca i32, align 4
  store ptr %0, ptr %4, align 8, !tbaa !4
  store i32 %1, ptr %5, align 4, !tbaa !9
  call void @llvm.lifetime.start.p0(i64 8, ptr %6) #8
  %8 = load ptr, ptr %4, align 8, !tbaa !4
  %9 = getelementptr inbounds nuw %struct.Proto, ptr %8, i32 0, i32 18
  %10 = load ptr, ptr %9, align 8, !tbaa !114
  %11 = load i32, ptr %5, align 4, !tbaa !9
  %12 = sext i32 %11 to i64
  %13 = getelementptr inbounds %struct.Upvaldesc, ptr %10, i64 %12
  %14 = getelementptr inbounds nuw %struct.Upvaldesc, ptr %13, i32 0, i32 0
  %15 = load ptr, ptr %14, align 8, !tbaa !115
  store ptr %15, ptr %6, align 8, !tbaa !95
  %16 = load ptr, ptr %6, align 8, !tbaa !95
  %17 = icmp eq ptr %16, null
  br i1 %17, label %18, label %19

18:                                               ; preds = %2
  store ptr @.str.18, ptr %3, align 8
  store i32 1, ptr %7, align 4
  br label %34

19:                                               ; preds = %2
  %20 = load ptr, ptr %6, align 8, !tbaa !95
  %21 = getelementptr inbounds nuw %struct.TString, ptr %20, i32 0, i32 4
  %22 = load i8, ptr %21, align 1, !tbaa !96
  %23 = sext i8 %22 to i32
  %24 = icmp sge i32 %23, 0
  br i1 %24, label %25, label %28

25:                                               ; preds = %19
  %26 = load ptr, ptr %6, align 8, !tbaa !95
  %27 = getelementptr inbounds nuw %struct.TString, ptr %26, i32 0, i32 7
  br label %32

28:                                               ; preds = %19
  %29 = load ptr, ptr %6, align 8, !tbaa !95
  %30 = getelementptr inbounds nuw %struct.TString, ptr %29, i32 0, i32 7
  %31 = load ptr, ptr %30, align 8, !tbaa !99
  br label %32

32:                                               ; preds = %28, %25
  %33 = phi ptr [ %27, %25 ], [ %31, %28 ]
  store ptr %33, ptr %3, align 8
  store i32 1, ptr %7, align 4
  br label %34

34:                                               ; preds = %32, %18
  call void @llvm.lifetime.end.p0(i64 8, ptr %6) #8
  %35 = load ptr, ptr %3, align 8
  ret ptr %35
}

; Function Attrs: nounwind uwtable
define internal ptr @formatvarinfo(ptr noundef %0, ptr noundef %1, ptr noundef %2) #0 {
  %4 = alloca ptr, align 8
  %5 = alloca ptr, align 8
  %6 = alloca ptr, align 8
  %7 = alloca ptr, align 8
  store ptr %0, ptr %5, align 8, !tbaa !30
  store ptr %1, ptr %6, align 8, !tbaa !58
  store ptr %2, ptr %7, align 8, !tbaa !58
  %8 = load ptr, ptr %6, align 8, !tbaa !58
  %9 = icmp eq ptr %8, null
  br i1 %9, label %10, label %11

10:                                               ; preds = %3
  store ptr @.str.10, ptr %4, align 8
  br label %16

11:                                               ; preds = %3
  %12 = load ptr, ptr %5, align 8, !tbaa !30
  %13 = load ptr, ptr %6, align 8, !tbaa !58
  %14 = load ptr, ptr %7, align 8, !tbaa !58
  %15 = call ptr (ptr, ptr, ...) @luaO_pushfstring(ptr noundef %12, ptr noundef @.str.30, ptr noundef %13, ptr noundef %14)
  store ptr %15, ptr %4, align 8
  br label %16

16:                                               ; preds = %11, %10
  %17 = load ptr, ptr %4, align 8
  ret ptr %17
}

; Function Attrs: nounwind uwtable
define internal i32 @currentpc(ptr noundef %0) #0 {
  %2 = alloca ptr, align 8
  store ptr %0, ptr %2, align 8, !tbaa !47
  %3 = load ptr, ptr %2, align 8, !tbaa !47
  %4 = getelementptr inbounds nuw %struct.CallInfo, ptr %3, i32 0, i32 4
  %5 = getelementptr inbounds nuw %struct.anon, ptr %4, i32 0, i32 0
  %6 = load ptr, ptr %5, align 8, !tbaa !22
  %7 = load ptr, ptr %2, align 8, !tbaa !47
  %8 = getelementptr inbounds nuw %struct.CallInfo, ptr %7, i32 0, i32 0
  %9 = load ptr, ptr %8, align 8, !tbaa !22
  %10 = getelementptr inbounds nuw %struct.TValue, ptr %9, i32 0, i32 0
  %11 = load ptr, ptr %10, align 8, !tbaa !22
  %12 = getelementptr inbounds nuw %struct.LClosure, ptr %11, i32 0, i32 5
  %13 = load ptr, ptr %12, align 8, !tbaa !59
  %14 = getelementptr inbounds nuw %struct.Proto, ptr %13, i32 0, i32 16
  %15 = load ptr, ptr %14, align 8, !tbaa !63
  %16 = ptrtoint ptr %6 to i64
  %17 = ptrtoint ptr %15 to i64
  %18 = sub i64 %16, %17
  %19 = sdiv exact i64 %18, 4
  %20 = trunc i64 %19 to i32
  %21 = sub nsw i32 %20, 1
  ret i32 %21
}

; Function Attrs: nounwind uwtable
define internal i32 @instack(ptr noundef %0, ptr noundef %1) #0 {
  %3 = alloca i32, align 4
  %4 = alloca ptr, align 8
  %5 = alloca ptr, align 8
  %6 = alloca i32, align 4
  %7 = alloca ptr, align 8
  %8 = alloca i32, align 4
  store ptr %0, ptr %4, align 8, !tbaa !47
  store ptr %1, ptr %5, align 8, !tbaa !64
  call void @llvm.lifetime.start.p0(i64 4, ptr %6) #8
  call void @llvm.lifetime.start.p0(i64 8, ptr %7) #8
  %9 = load ptr, ptr %4, align 8, !tbaa !47
  %10 = getelementptr inbounds nuw %struct.CallInfo, ptr %9, i32 0, i32 0
  %11 = load ptr, ptr %10, align 8, !tbaa !22
  %12 = getelementptr inbounds %union.StackValue, ptr %11, i64 1
  store ptr %12, ptr %7, align 8, !tbaa !56
  store i32 0, ptr %6, align 4, !tbaa !9
  br label %13

13:                                               ; preds = %32, %2
  %14 = load ptr, ptr %7, align 8, !tbaa !56
  %15 = load i32, ptr %6, align 4, !tbaa !9
  %16 = sext i32 %15 to i64
  %17 = getelementptr inbounds %union.StackValue, ptr %14, i64 %16
  %18 = load ptr, ptr %4, align 8, !tbaa !47
  %19 = getelementptr inbounds nuw %struct.CallInfo, ptr %18, i32 0, i32 1
  %20 = load ptr, ptr %19, align 8, !tbaa !22
  %21 = icmp ult ptr %17, %20
  br i1 %21, label %22, label %35

22:                                               ; preds = %13
  %23 = load ptr, ptr %5, align 8, !tbaa !64
  %24 = load ptr, ptr %7, align 8, !tbaa !56
  %25 = load i32, ptr %6, align 4, !tbaa !9
  %26 = sext i32 %25 to i64
  %27 = getelementptr inbounds %union.StackValue, ptr %24, i64 %26
  %28 = icmp eq ptr %23, %27
  br i1 %28, label %29, label %31

29:                                               ; preds = %22
  %30 = load i32, ptr %6, align 4, !tbaa !9
  store i32 %30, ptr %3, align 4
  store i32 1, ptr %8, align 4
  br label %36

31:                                               ; preds = %22
  br label %32

32:                                               ; preds = %31
  %33 = load i32, ptr %6, align 4, !tbaa !9
  %34 = add nsw i32 %33, 1
  store i32 %34, ptr %6, align 4, !tbaa !9
  br label %13

35:                                               ; preds = %13
  store i32 -1, ptr %3, align 4
  store i32 1, ptr %8, align 4
  br label %36

36:                                               ; preds = %35, %29
  call void @llvm.lifetime.end.p0(i64 8, ptr %7) #8
  call void @llvm.lifetime.end.p0(i64 4, ptr %6) #8
  %37 = load i32, ptr %3, align 4
  ret i32 %37
}

; Function Attrs: nounwind uwtable
define internal ptr @getupvalname(ptr noundef %0, ptr noundef %1, ptr noundef %2) #0 {
  %4 = alloca ptr, align 8
  %5 = alloca ptr, align 8
  %6 = alloca ptr, align 8
  %7 = alloca ptr, align 8
  %8 = alloca ptr, align 8
  %9 = alloca i32, align 4
  %10 = alloca i32, align 4
  store ptr %0, ptr %5, align 8, !tbaa !47
  store ptr %1, ptr %6, align 8, !tbaa !64
  store ptr %2, ptr %7, align 8, !tbaa !86
  call void @llvm.lifetime.start.p0(i64 8, ptr %8) #8
  %11 = load ptr, ptr %5, align 8, !tbaa !47
  %12 = getelementptr inbounds nuw %struct.CallInfo, ptr %11, i32 0, i32 0
  %13 = load ptr, ptr %12, align 8, !tbaa !22
  %14 = getelementptr inbounds nuw %struct.TValue, ptr %13, i32 0, i32 0
  %15 = load ptr, ptr %14, align 8, !tbaa !22
  store ptr %15, ptr %8, align 8, !tbaa !110
  call void @llvm.lifetime.start.p0(i64 4, ptr %9) #8
  store i32 0, ptr %9, align 4, !tbaa !9
  br label %16

16:                                               ; preds = %42, %3
  %17 = load i32, ptr %9, align 4, !tbaa !9
  %18 = load ptr, ptr %8, align 8, !tbaa !110
  %19 = getelementptr inbounds nuw %struct.LClosure, ptr %18, i32 0, i32 3
  %20 = load i8, ptr %19, align 2, !tbaa !112
  %21 = zext i8 %20 to i32
  %22 = icmp slt i32 %17, %21
  br i1 %22, label %23, label %45

23:                                               ; preds = %16
  %24 = load ptr, ptr %8, align 8, !tbaa !110
  %25 = getelementptr inbounds nuw %struct.LClosure, ptr %24, i32 0, i32 6
  %26 = load i32, ptr %9, align 4, !tbaa !9
  %27 = sext i32 %26 to i64
  %28 = getelementptr inbounds [1 x ptr], ptr %25, i64 0, i64 %27
  %29 = load ptr, ptr %28, align 8, !tbaa !113
  %30 = getelementptr inbounds nuw %struct.UpVal, ptr %29, i32 0, i32 3
  %31 = load ptr, ptr %30, align 8, !tbaa !22
  %32 = load ptr, ptr %6, align 8, !tbaa !64
  %33 = icmp eq ptr %31, %32
  br i1 %33, label %34, label %41

34:                                               ; preds = %23
  %35 = load ptr, ptr %8, align 8, !tbaa !110
  %36 = getelementptr inbounds nuw %struct.LClosure, ptr %35, i32 0, i32 5
  %37 = load ptr, ptr %36, align 8, !tbaa !59
  %38 = load i32, ptr %9, align 4, !tbaa !9
  %39 = call ptr @upvalname(ptr noundef %37, i32 noundef %38)
  %40 = load ptr, ptr %7, align 8, !tbaa !86
  store ptr %39, ptr %40, align 8, !tbaa !58
  store ptr @.str.17, ptr %4, align 8
  store i32 1, ptr %10, align 4
  br label %46

41:                                               ; preds = %23
  br label %42

42:                                               ; preds = %41
  %43 = load i32, ptr %9, align 4, !tbaa !9
  %44 = add nsw i32 %43, 1
  store i32 %44, ptr %9, align 4, !tbaa !9
  br label %16

45:                                               ; preds = %16
  store ptr null, ptr %4, align 8
  store i32 1, ptr %10, align 4
  br label %46

46:                                               ; preds = %45, %34
  call void @llvm.lifetime.end.p0(i64 4, ptr %9) #8
  call void @llvm.lifetime.end.p0(i64 8, ptr %8) #8
  %47 = load ptr, ptr %4, align 8
  ret ptr %47
}

; Function Attrs: nounwind uwtable
define internal ptr @varinfo(ptr noundef %0, ptr noundef %1) #0 {
  %3 = alloca ptr, align 8
  %4 = alloca ptr, align 8
  %5 = alloca ptr, align 8
  %6 = alloca ptr, align 8
  %7 = alloca ptr, align 8
  %8 = alloca i32, align 4
  store ptr %0, ptr %3, align 8, !tbaa !30
  store ptr %1, ptr %4, align 8, !tbaa !64
  call void @llvm.lifetime.start.p0(i64 8, ptr %5) #8
  %9 = load ptr, ptr %3, align 8, !tbaa !30
  %10 = getelementptr inbounds nuw %struct.lua_State, ptr %9, i32 0, i32 8
  %11 = load ptr, ptr %10, align 8, !tbaa !46
  store ptr %11, ptr %5, align 8, !tbaa !47
  call void @llvm.lifetime.start.p0(i64 8, ptr %6) #8
  store ptr null, ptr %6, align 8, !tbaa !58
  call void @llvm.lifetime.start.p0(i64 8, ptr %7) #8
  store ptr null, ptr %7, align 8, !tbaa !58
  %12 = load ptr, ptr %5, align 8, !tbaa !47
  %13 = getelementptr inbounds nuw %struct.CallInfo, ptr %12, i32 0, i32 6
  %14 = load i32, ptr %13, align 4, !tbaa !48
  %15 = and i32 %14, 32768
  %16 = icmp ne i32 %15, 0
  br i1 %16, label %43, label %17

17:                                               ; preds = %2
  %18 = load ptr, ptr %5, align 8, !tbaa !47
  %19 = load ptr, ptr %4, align 8, !tbaa !64
  %20 = call ptr @getupvalname(ptr noundef %18, ptr noundef %19, ptr noundef %6)
  store ptr %20, ptr %7, align 8, !tbaa !58
  %21 = load ptr, ptr %7, align 8, !tbaa !58
  %22 = icmp ne ptr %21, null
  br i1 %22, label %42, label %23

23:                                               ; preds = %17
  call void @llvm.lifetime.start.p0(i64 4, ptr %8) #8
  %24 = load ptr, ptr %5, align 8, !tbaa !47
  %25 = load ptr, ptr %4, align 8, !tbaa !64
  %26 = call i32 @instack(ptr noundef %24, ptr noundef %25)
  store i32 %26, ptr %8, align 4, !tbaa !9
  %27 = load i32, ptr %8, align 4, !tbaa !9
  %28 = icmp sge i32 %27, 0
  br i1 %28, label %29, label %41

29:                                               ; preds = %23
  %30 = load ptr, ptr %5, align 8, !tbaa !47
  %31 = getelementptr inbounds nuw %struct.CallInfo, ptr %30, i32 0, i32 0
  %32 = load ptr, ptr %31, align 8, !tbaa !22
  %33 = getelementptr inbounds nuw %struct.TValue, ptr %32, i32 0, i32 0
  %34 = load ptr, ptr %33, align 8, !tbaa !22
  %35 = getelementptr inbounds nuw %struct.LClosure, ptr %34, i32 0, i32 5
  %36 = load ptr, ptr %35, align 8, !tbaa !59
  %37 = load ptr, ptr %5, align 8, !tbaa !47
  %38 = call i32 @currentpc(ptr noundef %37)
  %39 = load i32, ptr %8, align 4, !tbaa !9
  %40 = call ptr @getobjname(ptr noundef %36, i32 noundef %38, i32 noundef %39, ptr noundef %6)
  store ptr %40, ptr %7, align 8, !tbaa !58
  br label %41

41:                                               ; preds = %29, %23
  call void @llvm.lifetime.end.p0(i64 4, ptr %8) #8
  br label %42

42:                                               ; preds = %41, %17
  br label %43

43:                                               ; preds = %42, %2
  %44 = load ptr, ptr %3, align 8, !tbaa !30
  %45 = load ptr, ptr %7, align 8, !tbaa !58
  %46 = load ptr, ptr %6, align 8, !tbaa !58
  %47 = call ptr @formatvarinfo(ptr noundef %44, ptr noundef %45, ptr noundef %46)
  call void @llvm.lifetime.end.p0(i64 8, ptr %7) #8
  call void @llvm.lifetime.end.p0(i64 8, ptr %6) #8
  call void @llvm.lifetime.end.p0(i64 8, ptr %5) #8
  ret ptr %47
}