; Function Attrs: nounwind uwtable
define internal fastcc ptr @varinfo(ptr noundef %0, ptr noundef readnone captures(address) %1) unnamed_addr #6 {
  %3 = alloca ptr, align 8
  %4 = getelementptr inbounds nuw i8, ptr %0, i64 32
  %5 = load ptr, ptr %4, align 8, !tbaa !39
  call void @llvm.lifetime.start.p0(i64 8, ptr nonnull %3) #13
  %6 = getelementptr inbounds nuw i8, ptr %5, i64 60
  %7 = load i32, ptr %6, align 4, !tbaa !40
  %8 = and i32 %7, 32768
  %.not = icmp eq i32 %8, 0
  br i1 %.not, label %9, label %formatvarinfo.exit

9:                                                ; preds = %2
  %.val17 = load ptr, ptr %5, align 8, !tbaa !24
  %.val17.val = load ptr, ptr %.val17, align 8, !tbaa !24
  %10 = getelementptr inbounds nuw i8, ptr %.val17.val, i64 10
  %11 = load i8, ptr %10, align 2, !tbaa !80
  %.not.i = icmp eq i8 %11, 0
  br i1 %.not.i, label %.loopexit, label %.lr.ph.i

.lr.ph.i:                                         ; preds = %9
  %12 = getelementptr inbounds nuw i8, ptr %.val17.val, i64 32
  %wide.trip.count.i = zext i8 %11 to i64
  br label %13

13:                                               ; preds = %34, %.lr.ph.i
  %indvars.iv.i = phi i64 [ 0, %.lr.ph.i ], [ %indvars.iv.next.i, %34 ]
  %14 = getelementptr inbounds nuw [1 x ptr], ptr %12, i64 0, i64 %indvars.iv.i
  %15 = load ptr, ptr %14, align 8, !tbaa !81
  %16 = getelementptr inbounds nuw i8, ptr %15, i64 16
  %17 = load ptr, ptr %16, align 8, !tbaa !24
  %18 = icmp eq ptr %17, %1
  br i1 %18, label %19, label %34

19:                                               ; preds = %13
  %20 = getelementptr inbounds nuw i8, ptr %.val17.val, i64 24
  %21 = load ptr, ptr %20, align 8, !tbaa !45
  %22 = getelementptr i8, ptr %21, i64 80
  %.val.i = load ptr, ptr %22, align 8, !tbaa !82
  %23 = and i64 %indvars.iv.i, 4294967295
  %24 = getelementptr inbounds nuw %struct.Upvaldesc, ptr %.val.i, i64 %23
  %25 = load ptr, ptr %24, align 8, !tbaa !83
  %26 = icmp eq ptr %25, null
  br i1 %26, label %.thread26, label %27

27:                                               ; preds = %19
  %28 = getelementptr inbounds nuw i8, ptr %25, i64 11
  %29 = load i8, ptr %28, align 1, !tbaa !60
  %30 = icmp sgt i8 %29, -1
  %31 = getelementptr inbounds nuw i8, ptr %25, i64 24
  br i1 %30, label %.thread26, label %32

32:                                               ; preds = %27
  %33 = load ptr, ptr %31, align 8, !tbaa !62
  br label %.thread26

34:                                               ; preds = %13
  %indvars.iv.next.i = add nuw nsw i64 %indvars.iv.i, 1
  %exitcond.not.i = icmp eq i64 %indvars.iv.next.i, %wide.trip.count.i
  br i1 %exitcond.not.i, label %.loopexit, label %13

.loopexit:                                        ; preds = %34, %9
  %35 = getelementptr inbounds nuw i8, ptr %.val17, i64 16
  %36 = getelementptr inbounds nuw i8, ptr %5, i64 8
  %37 = load ptr, ptr %36, align 8, !tbaa !24
  %38 = icmp ult ptr %35, %37
  br i1 %38, label %.lr.ph.i18, label %formatvarinfo.exit

.lr.ph.i18:                                       ; preds = %.loopexit, %41
  %indvars.iv.i19 = phi i64 [ %indvars.iv.next.i20, %41 ], [ 0, %.loopexit ]
  %39 = getelementptr inbounds nuw %union.StackValue, ptr %35, i64 %indvars.iv.i19
  %40 = icmp eq ptr %1, %39
  br i1 %40, label %instack.exit, label %41

41:                                               ; preds = %.lr.ph.i18
  %indvars.iv.next.i20 = add nuw nsw i64 %indvars.iv.i19, 1
  %42 = getelementptr inbounds nuw %union.StackValue, ptr %35, i64 %indvars.iv.next.i20
  %43 = icmp ult ptr %42, %37
  br i1 %43, label %.lr.ph.i18, label %formatvarinfo.exit

instack.exit:                                     ; preds = %.lr.ph.i18
  %44 = trunc nuw nsw i64 %indvars.iv.i19 to i32
  %45 = getelementptr inbounds nuw i8, ptr %.val17.val, i64 24
  %46 = load ptr, ptr %45, align 8, !tbaa !45
  %47 = getelementptr i8, ptr %5, i64 32
  %.val16 = load ptr, ptr %47, align 8, !tbaa !24
  %48 = getelementptr i8, ptr %46, i64 64
  %.val.val.val.val = load ptr, ptr %48, align 8, !tbaa !49
  %49 = ptrtoint ptr %.val16 to i64
  %50 = ptrtoint ptr %.val.val.val.val to i64
  %51 = sub i64 %49, %50
  %52 = lshr exact i64 %51, 2
  %53 = trunc i64 %52 to i32
  %54 = add nsw i32 %53, -1
  %55 = call fastcc ptr @getobjname(ptr noundef %46, i32 noundef %54, i32 noundef %44, ptr noundef nonnull %3)
  %56 = load ptr, ptr %3, align 8, !tbaa !85
  %57 = icmp eq ptr %55, null
  br i1 %57, label %formatvarinfo.exit, label %.thread26

.thread26:                                        ; preds = %19, %27, %32, %instack.exit
  %58 = phi ptr [ %56, %instack.exit ], [ @.str.18, %19 ], [ %33, %32 ], [ %31, %27 ]
  %.028 = phi ptr [ %55, %instack.exit ], [ @.str.17, %19 ], [ @.str.17, %32 ], [ @.str.17, %27 ]
  %59 = tail call ptr (ptr, ptr, ...) @luaO_pushfstring(ptr noundef %0, ptr noundef nonnull @.str.30, ptr noundef nonnull %.028, ptr noundef %58) #13
  br label %formatvarinfo.exit

formatvarinfo.exit:                               ; preds = %41, %.loopexit, %2, %instack.exit, %.thread26
  %.0.i21 = phi ptr [ %59, %.thread26 ], [ @.str.10, %instack.exit ], [ @.str.10, %2 ], [ @.str.10, %.loopexit ], [ @.str.10, %41 ]
  call void @llvm.lifetime.end.p0(i64 8, ptr nonnull %3) #13
  ret ptr %.0.i21
}